target datalayout = "e-m:e-p270:32:32-p271:32:32-p272:64:64-i64:64-i128:128-f80:128-n8:16:32:64-S128"
target triple = "x86_64-pc-linux-gnu"

@.str.90 = private unnamed_addr constant [14 x i8] c"PYTHONMALLOC=\00", align 1
@.str.116 = private unnamed_addr constant [31 x i8] c"PyThread_allocate_lock failed!\00", align 1
@.str.117 = private unnamed_addr constant [34 x i8] c"PyThread_start_new_thread failed!\00", align 1

; Function Attrs: nounwind uwtable
define internal i32 @test_bpo20891() #0 {
  %1 = alloca i32, align 4
  %2 = alloca ptr, align 8
  %3 = alloca i32, align 4
  %4 = alloca i64, align 8
  %5 = alloca ptr, align 8
  %6 = call i32 @putenv(ptr noundef @.str.90) #11
  call void @llvm.lifetime.start.p0(i64 8, ptr %2) #11
  %7 = call ptr @PyThread_allocate_lock()
  store ptr %7, ptr %2, align 8, !tbaa !38
  %8 = load ptr, ptr %2, align 8, !tbaa !38
  %9 = icmp ne ptr %8, null
  br i1 %9, label %11, label %10

10:                                               ; preds = %0
  call void @error(ptr noundef @.str.116)
  store i32 1, ptr %1, align 4
  store i32 1, ptr %3, align 4
  br label %25

11:                                               ; preds = %0
  call void @_testembed_Py_InitializeFromConfig()
  call void @llvm.lifetime.start.p0(i64 8, ptr %4) #11
  %12 = call i64 @PyThread_start_new_thread(ptr noundef @bpo20891_thread, ptr noundef %2)
  store i64 %12, ptr %4, align 8, !tbaa !37
  %13 = load i64, ptr %4, align 8, !tbaa !37
  %14 = icmp eq i64 %13, -1
  br i1 %14, label %15, label %16

15:                                               ; preds = %11
  call void @error(ptr noundef @.str.117)
  store i32 1, ptr %1, align 4
  store i32 1, ptr %3, align 4
  br label %24

16:                                               ; preds = %11
  %17 = load ptr, ptr %2, align 8, !tbaa !38
  %18 = call i32 @PyThread_acquire_lock(ptr noundef %17, i32 noundef 1)
  call void @llvm.lifetime.start.p0(i64 8, ptr %5) #11
  %19 = call ptr @PyEval_SaveThread()
  store ptr %19, ptr %5, align 8, !tbaa !25
  %20 = load ptr, ptr %2, align 8, !tbaa !38
  %21 = call i32 @PyThread_acquire_lock(ptr noundef %20, i32 noundef 1)
  %22 = load ptr, ptr %5, align 8, !tbaa !25
  call void @PyEval_RestoreThread(ptr noundef %22)
  call void @llvm.lifetime.end.p0(i64 8, ptr %5) #11
  %23 = load ptr, ptr %2, align 8, !tbaa !38
  call void @PyThread_free_lock(ptr noundef %23)
  call void @Py_Finalize()
  store i32 0, ptr %1, align 4
  store i32 1, ptr %3, align 4
  br label %24

24:                                               ; preds = %16, %15
  call void @llvm.lifetime.end.p0(i64 8, ptr %4) #11
  br label %25

25:                                               ; preds = %24, %10
  call void @llvm.lifetime.end.p0(i64 8, ptr %2) #11
  %26 = load i32, ptr %1, align 4
  ret i32 %26
}