; Function Attrs: nounwind uwtable
define internal range(i32 0, 2) i32 @test_bpo20891() #0 {
  %1 = alloca ptr, align 8
  %2 = tail call i32 @putenv(ptr noundef nonnull @.str.90) #20
  call void @llvm.lifetime.start.p0(i64 8, ptr nonnull %1) #20
  %3 = tail call ptr @PyThread_allocate_lock() #20
  store ptr %3, ptr %1, align 8, !tbaa !41
  %.not = icmp eq ptr %3, null
  br i1 %.not, label %4, label %5

4:                                                ; preds = %0
  tail call fastcc void @error(ptr noundef nonnull @.str.116)
  br label %16

5:                                                ; preds = %0
  tail call fastcc void @_testembed_Py_InitializeFromConfig()
  %6 = call i64 @PyThread_start_new_thread(ptr noundef nonnull @bpo20891_thread, ptr noundef nonnull %1) #20
  %7 = icmp eq i64 %6, -1
  br i1 %7, label %8, label %9

8:                                                ; preds = %5
  call fastcc void @error(ptr noundef nonnull @.str.117)
  br label %16

9:                                                ; preds = %5
  %10 = load ptr, ptr %1, align 8, !tbaa !41
  %11 = call i32 @PyThread_acquire_lock(ptr noundef %10, i32 noundef 1) #20
  %12 = call ptr @PyEval_SaveThread() #20
  %13 = load ptr, ptr %1, align 8, !tbaa !41
  %14 = call i32 @PyThread_acquire_lock(ptr noundef %13, i32 noundef 1) #20
  call void @PyEval_RestoreThread(ptr noundef %12) #20
  %15 = load ptr, ptr %1, align 8, !tbaa !41
  call void @PyThread_free_lock(ptr noundef %15) #20
  call void @Py_Finalize() #20
  br label %16

16:                                               ; preds = %8, %9, %4
  %.0 = phi i32 [ 1, %4 ], [ 1, %8 ], [ 0, %9 ]
  call void @llvm.lifetime.end.p0(i64 8, ptr nonnull %1) #20
  ret i32 %.0
}